; Function Attrs: nounwind sspstrong uwtable
define internal fastcc void @rb_provide_feature(ptr noundef %0, i64 noundef %1) unnamed_addr #0 {
  %3 = getelementptr i8, ptr %0, i64 608
  %.val = load i64, ptr %3, align 8, !tbaa !52
  %4 = icmp eq i64 %.val, 0
  %5 = and i64 %.val, 7
  %6 = icmp ne i64 %5, 0
  %7 = or i1 %4, %6
  br i1 %7, label %RB_OBJ_FROZEN.exit.thread, label %RB_FL_ABLE.exit.i

RB_FL_ABLE.exit.i:                                ; preds = %2
  %8 = inttoptr i64 %.val to ptr
  %9 = load i64, ptr %8, align 8, !tbaa !44
  %10 = and i64 %9, 31
  %.not.i = icmp eq i64 %10, 27
  %11 = and i64 %9, 2048
  %12 = icmp ne i64 %11, 0
  %or.cond = or i1 %.not.i, %12
  br i1 %or.cond, label %RB_OBJ_FROZEN.exit.thread, label %14

RB_OBJ_FROZEN.exit.thread:                        ; preds = %2, %RB_FL_ABLE.exit.i
  %13 = load i64, ptr @rb_eRuntimeError, align 8, !tbaa !42
  tail call void (i64, ptr, ...) @rb_raise(i64 noundef %13, ptr noundef nonnull @.str.18) #21
  unreachable

14:                                               ; preds = %RB_FL_ABLE.exit.i
  %15 = tail call i64 @rb_fstring(i64 noundef %1) #7
  %16 = tail call fastcc ptr @get_loaded_features_index(ptr noundef nonnull %0)
  %17 = getelementptr inbounds nuw i8, ptr %0, i64 616
  %18 = load i64, ptr %17, align 8, !tbaa !53
  %19 = tail call i64 @rb_ary_clear(i64 noundef %18) #7
  %20 = tail call i64 @rb_ary_push(i64 noundef %.val, i64 noundef %15) #7
  %21 = load i64, ptr %8, align 8, !tbaa !44
  %22 = and i64 %21, 8192
  %.not.i12 = icmp eq i64 %22, 0
  br i1 %.not.i12, label %26, label %23

23:                                               ; preds = %14
  %24 = lshr i64 %21, 15
  %25 = and i64 %24, 127
  br label %rb_array_len.exit

26:                                               ; preds = %14
  %27 = getelementptr inbounds nuw i8, ptr %8, i64 16
  %28 = load i64, ptr %27, align 8, !tbaa !43
  br label %rb_array_len.exit

rb_array_len.exit:                                ; preds = %23, %26
  %.0.i13 = phi i64 [ %25, %23 ], [ %28, %26 ]
  %29 = shl i64 %.0.i13, 1
  %30 = add i64 %29, -1
  tail call fastcc void @features_index_add(ptr noundef nonnull %0, i64 noundef %15, i64 noundef %30)
  %.val10 = load i64, ptr %3, align 8, !tbaa !52
  %.val11 = load i64, ptr %17, align 8, !tbaa !53
  %31 = tail call i64 @rb_ary_replace(i64 noundef %.val11, i64 noundef %.val10) #7
  ret void
}